Certificate:
    Data:
        Version: 1 (0x0)
        Serial Number: 180 (0xb4)
    Signature Algorithm: md5WithRSAEncryption
        Issuer: C=SG, ST=Singapore, L=Singapore, O=SUTD, OU=SUTD, CN=Benjamin Kang/emailAddress=webby1111@hotmail.com
        Validity
            Not Before: Mar 27 08:25:49 2018 GMT
            Not After : Mar 27 08:25:49 2019 GMT
        Subject: C=SG, ST=Singapore, L=City, O=SUTD, CN=Rayson_Kim/emailAddress=rayson.ljk@gmail.com
        Subject Public Key Info:
            Public Key Algorithm: rsaEncryption
                Public-Key: (1024 bit)
                Modulus:
                    00:cc:38:7c:04:86:97:dc:10:cb:28:22:ee:a3:e9:
                    3b:94:ac:c5:ea:50:0e:a4:4d:2f:a2:dd:e7:28:52:
                    76:e1:4c:a1:fd:d8:6f:82:87:e5:ab:5b:c8:c7:ca:
                    bc:3f:69:2a:4e:1b:f5:43:c8:2a:bd:1a:d6:1c:07:
                    4f:7f:83:1b:d9:11:1d:7e:a6:6f:0f:32:6a:9d:4a:
                    9c:55:08:46:92:be:04:89:fd:f8:64:32:11:2f:9b:
                    06:d4:39:53:a9:a5:a8:d2:55:7f:cf:d1:bd:db:80:
                    78:76:c8:96:27:6d:8b:da:24:08:ec:42:3f:ab:f1:
                    c9:2c:a0:92:4c:6a:ef:b8:91
                Exponent: 65537 (0x10001)
    Signature Algorithm: md5WithRSAEncryption
         66:90:cb:67:57:2c:13:32:4f:87:c8:f6:84:3e:85:6f:bb:cb:
         8d:89:29:4c:bc:37:49:6c:4e:b3:3b:19:24:72:2b:3e:69:f3:
         d8:92:1c:b5:b0:f5:f4:ca:4b:38:49:44:8d:29:7b:db:ba:a8:
         1a:ba:62:1c:ec:d5:ec:7d:4e:dc:2a:f7:74:86:c8:0c:b7:42:
         41:f1:08:28:00:0f:7a:ee:e6:18:bf:d7:0f:e6:39:3f:ce:b5:
         2d:70:d8:9e:60:48:e4:0f:25:65:c2:ae:9d:6f:9f:f3:94:92:
         14:95:29:f4:cb:f7:7f:c6:c0:f9:c1:6e:f1:98:44:c0:32:2a:
         3c:65
-----BEGIN CERTIFICATE-----
MIICezCCAeQCAgC0MA0GCSqGSIb3DQEBBAUAMIGRMQswCQYDVQQGEwJTRzESMBAG
A1UECBMJU2luZ2Fwb3JlMRIwEAYDVQQHEwlTaW5nYXBvcmUxDTALBgNVBAoTBFNV
VEQxDTALBgNVBAsTBFNVVEQxFjAUBgNVBAMTDUJlbmphbWluIEthbmcxJDAiBgkq
hkiG9w0BCQEWFXdlYmJ5MTExMUBob3RtYWlsLmNvbTAeFw0xODAzMjcwODI1NDla
Fw0xOTAzMjcwODI1NDlaMHkxCzAJBgNVBAYTAlNHMRIwEAYDVQQIDAlTaW5nYXBv
cmUxDTALBgNVBAcMBENpdHkxDTALBgNVBAoMBFNVVEQxEzARBgNVBAMMClJheXNv
bl9LaW0xIzAhBgkqhkiG9w0BCQEWFHJheXNvbi5samtAZ21haWwuY29tMIGfMA0G
CSqGSIb3DQEBAQUAA4GNADCBiQKBgQDMOHwEhpfcEMsoIu6j6TuUrMXqUA6kTS+i
3ecoUnbhTKH92G+Ch+WrW8jHyrw/aSpOG/VDyCq9GtYcB09/gxvZER1+pm8PMmqd
SpxVCEaSvgSJ/fhkMhEvmwbUOVOppajSVX/P0b3bgHh2yJYnbYvaJAjsQj+r8cks
oJJMau+4kQIDAQABMA0GCSqGSIb3DQEBBAUAA4GBAGaQy2dXLBMyT4fI9oQ+hW+7
y42JKUy8N0lsTrM7GSRyKz5p89iSHLWw9fTKSzhJRI0pe9u6qBq6Yhzs1ex9Ttwq
93SGyAy3QkHxCCgAD3ru5hi/1w/mOT/OtS1w2J5gSOQPJWXCrp1vn/OUkhSVKfTL
93/GwPnBbvGYRMAyKjxl
-----END CERTIFICATE-----
